; Function Attrs: mustprogress uwtable
define void @_ZN7rocksdb14ThreadLocalPtr10StaticMeta5ResetEjPv(ptr nonnull readnone align 8 captures(none) %0, i32 noundef %1, ptr noundef %2) local_unnamed_addr #0 align 2 personality ptr @__gxx_personality_v0 {
  %4 = tail call noundef ptr @_ZN7rocksdb14ThreadLocalPtr10StaticMeta14GetThreadLocalEv()
  %5 = zext i32 %1 to i64
  %6 = getelementptr inbounds nuw i8, ptr %4, i64 8
  %7 = load ptr, ptr %6, align 8, !tbaa !70
  %8 = load ptr, ptr %4, align 8, !tbaa !38
  %9 = ptrtoint ptr %7 to i64
  %10 = ptrtoint ptr %8 to i64
  %11 = sub i64 %9, %10
  %12 = ashr exact i64 %11, 3
  %.not = icmp ugt i64 %12, %5
  br i1 %.not, label %_ZN7rocksdb9MutexLockD2Ev.exit, label %13, !prof !71

13:                                               ; preds = %3
  %14 = tail call noundef ptr @_ZN7rocksdb14ThreadLocalPtr10StaticMeta5MutexEv()
  tail call void @_ZN7rocksdb4port5Mutex4LockEv(ptr noundef nonnull align 8 dereferenceable(40) %14)
  %15 = add i32 %1, 1
  %16 = zext i32 %15 to i64
  invoke void @_ZNSt6vectorIN7rocksdb5EntryESaIS1_EE6resizeEm(ptr noundef nonnull align 8 dereferenceable(24) %4, i64 noundef %16)
          to label %17 unwind label %21

17:                                               ; preds = %13
  invoke void @_ZN7rocksdb4port5Mutex6UnlockEv(ptr noundef nonnull align 8 dereferenceable(40) %14)
          to label %._ZN7rocksdb9MutexLockD2Ev.exit_crit_edge unwind label %18

._ZN7rocksdb9MutexLockD2Ev.exit_crit_edge:        ; preds = %17
  %.pre = load ptr, ptr %4, align 8, !tbaa !38
  br label %_ZN7rocksdb9MutexLockD2Ev.exit

18:                                               ; preds = %17
  %19 = landingpad { ptr, i32 }
          catch ptr null
  %20 = extractvalue { ptr, i32 } %19, 0
  tail call void @__clang_call_terminate(ptr %20) #22
  unreachable

21:                                               ; preds = %13
  %22 = landingpad { ptr, i32 }
          cleanup
  invoke void @_ZN7rocksdb4port5Mutex6UnlockEv(ptr noundef nonnull align 8 dereferenceable(40) %14)
          to label %_ZN7rocksdb9MutexLockD2Ev.exit8 unwind label %23

23:                                               ; preds = %21
  %24 = landingpad { ptr, i32 }
          catch ptr null
  %25 = extractvalue { ptr, i32 } %24, 0
  tail call void @__clang_call_terminate(ptr %25) #22
  unreachable

_ZN7rocksdb9MutexLockD2Ev.exit8:                  ; preds = %21
  resume { ptr, i32 } %22

_ZN7rocksdb9MutexLockD2Ev.exit:                   ; preds = %._ZN7rocksdb9MutexLockD2Ev.exit_crit_edge, %3
  %26 = phi ptr [ %.pre, %._ZN7rocksdb9MutexLockD2Ev.exit_crit_edge ], [ %8, %3 ]
  %27 = getelementptr inbounds nuw %"struct.rocksdb::Entry", ptr %26, i64 %5
  %28 = ptrtoint ptr %2 to i64
  store atomic i64 %28, ptr %27 release, align 8
  ret void
}